(dp0
(I1
I2
I1
tp1
(lp2
I9
aI10
as(I2
I1
I9
tp3
(lp4
I1
as(I1
I3
I9
tp5
(lp6
I2
as(I3
I1
I10
tp7
(lp8
I1
as(I3
I1
I5
tp9
(lp10
I8
as(I1
I3
I1
tp11
(lp12
I8
aI9
aI10
as(I1
I3
I8
tp13
(lp14
I5
as(I3
I1
I9
tp15
(lp16
I1
as(I3
I2
I3
tp17
(lp18
I2
as(I1
I3
I10
tp19
(lp20
I2
as(I1
I3
I5
tp21
(lp22
I3
as(I3
I1
I8
tp23
(lp24
I1
as(I1
I2
I10
tp25
(lp26
I2
as(I2
I1
I2
tp27
(lp28
I9
aI10
as(I3
I1
I3
tp29
(lp30
I2
aI5
as(I1
I2
I9
tp31
(lp32
I2
as(I2
I3
I2
tp33
(lp34
I3
as(I3
I1
I2
tp35
(lp36
I9
aI10
as(I2
I1
I10
tp37
(lp38
I1
as(I1
I3
I2
tp39
(lp40
I3
as.